target datalayout = "e-m:e-p270:32:32-p271:32:32-p272:64:64-i64:64-i128:128-f80:128-n8:16:32:64-S128"
target triple = "x86_64-pc-linux-gnu"

%struct.AVFilterContext = type { ptr, ptr, ptr, ptr, ptr, i32, ptr, ptr, i32, ptr, ptr, i32, i32, ptr, ptr, ptr, ptr, i32, ptr, i32, i32 }
%struct.BlendContext = type { ptr, %struct.FFFrameSync, i32, i32, i32, ptr, i32, double, i32, [4 x %struct.FilterParams], i32, ptr, i32 }
%struct.FFFrameSync = type { ptr, ptr, i32, %struct.AVRational, i64, ptr, ptr, i32, i32, i8, i8, ptr, i32, i32, i32, i32 }
%struct.AVRational = type { i32, i32 }
%struct.FilterParams = type { i32, double, ptr, ptr, ptr }
%struct.AVFilter = type { ptr, ptr, ptr, ptr, ptr, i32 }

@.str.2 = private unnamed_addr constant [7 x i8] c"tblend\00", align 1

; Function Attrs: cold nounwind optsize uwtable
define internal i32 @init(ptr noundef %0) #1 {
  %2 = alloca ptr, align 8
  %3 = alloca ptr, align 8
  store ptr %0, ptr %2, align 8, !tbaa !4
  call void @llvm.lifetime.start.p0(i64 8, ptr %3) #12
  %4 = load ptr, ptr %2, align 8, !tbaa !4
  %5 = getelementptr inbounds nuw %struct.AVFilterContext, ptr %4, i32 0, i32 9
  %6 = load ptr, ptr %5, align 8, !tbaa !9
  store ptr %6, ptr %3, align 8, !tbaa !22
  %7 = load ptr, ptr %2, align 8, !tbaa !4
  %8 = getelementptr inbounds nuw %struct.AVFilterContext, ptr %7, i32 0, i32 1
  %9 = load ptr, ptr %8, align 8, !tbaa !24
  %10 = getelementptr inbounds nuw %struct.AVFilter, ptr %9, i32 0, i32 0
  %11 = load ptr, ptr %10, align 8, !tbaa !25
  %12 = call i32 @strcmp(ptr noundef %11, ptr noundef @.str.2) #13
  %13 = icmp ne i32 %12, 0
  %14 = xor i1 %13, true
  %15 = zext i1 %14 to i32
  %16 = load ptr, ptr %3, align 8, !tbaa !22
  %17 = getelementptr inbounds nuw %struct.BlendContext, ptr %16, i32 0, i32 10
  store i32 %15, ptr %17, align 8, !tbaa !27
  %18 = load ptr, ptr %2, align 8, !tbaa !4
  %19 = call i32 @ff_filter_get_nb_threads(ptr noundef %18) #13
  %20 = load ptr, ptr %3, align 8, !tbaa !22
  %21 = getelementptr inbounds nuw %struct.BlendContext, ptr %20, i32 0, i32 12
  store i32 %19, ptr %21, align 8, !tbaa !35
  %22 = load ptr, ptr %3, align 8, !tbaa !22
  %23 = getelementptr inbounds nuw %struct.BlendContext, ptr %22, i32 0, i32 1
  %24 = getelementptr inbounds nuw %struct.FFFrameSync, ptr %23, i32 0, i32 5
  store ptr @blend_frame_for_dualinput, ptr %24, align 8, !tbaa !36
  call void @llvm.lifetime.end.p0(i64 8, ptr %3) #12
  ret i32 0
}