; Function Attrs: cold mustprogress nofree nounwind optsize willreturn memory(readwrite, inaccessiblemem: read) uwtable
define internal noundef i32 @init(ptr noundef %0) #1 {
  %2 = getelementptr inbounds nuw i8, ptr %0, i64 72
  %3 = load ptr, ptr %2, align 8, !tbaa !4
  %4 = getelementptr inbounds nuw i8, ptr %0, i64 8
  %5 = load ptr, ptr %4, align 8, !tbaa !20
  %6 = load ptr, ptr %5, align 8, !tbaa !21
  %7 = tail call i32 @strcmp(ptr noundef nonnull dereferenceable(1) %6, ptr noundef nonnull dereferenceable(7) @.str.2) #13
  %.not = icmp eq i32 %7, 0
  %8 = zext i1 %.not to i32
  %9 = getelementptr inbounds nuw i8, ptr %3, i64 312
  store i32 %8, ptr %9, align 8, !tbaa !23
  %10 = tail call i32 @ff_filter_get_nb_threads(ptr noundef %0) #13
  %11 = getelementptr inbounds nuw i8, ptr %3, i64 328
  store i32 %10, ptr %11, align 8, !tbaa !32
  %12 = getelementptr inbounds nuw i8, ptr %3, i64 48
  store ptr @blend_frame_for_dualinput, ptr %12, align 8, !tbaa !33
  ret i32 0
}